; Function Attrs: mustprogress uwtable
define noundef nonnull align 8 dereferenceable(384) ptr @_ZN7rocksdblsERNS_10JSONWriterERKNS_11WalAdditionE(ptr noundef nonnull returned align 8 dereferenceable(384) %0, ptr noundef nonnull readonly align 8 captures(none) dereferenceable(16) %1) local_unnamed_addr #0 {
  %3 = tail call noundef nonnull align 8 dereferenceable(384) ptr @_ZN7rocksdb10JSONWriterlsEPKc(ptr noundef nonnull align 8 dereferenceable(384) %0, ptr noundef nonnull @.str.4)
  %4 = load i64, ptr %1, align 8, !tbaa !4
  %5 = load i32, ptr %3, align 8, !tbaa !50
  %6 = icmp eq i32 %5, 2
  br i1 %6, label %7, label %14

7:                                                ; preds = %2
  %8 = getelementptr inbounds nuw i8, ptr %3, i64 4
  %9 = load i8, ptr %8, align 4, !tbaa !58, !range !59, !noundef !60
  %10 = trunc nuw i8 %9 to i1
  br i1 %10, label %14, label %11

11:                                               ; preds = %7
  %12 = getelementptr inbounds nuw i8, ptr %3, i64 8
  %13 = tail call noundef nonnull align 8 dereferenceable(8) ptr @_ZSt16__ostream_insertIcSt11char_traitsIcEERSt13basic_ostreamIT_T0_ES6_PKS3_l(ptr noundef nonnull align 8 dereferenceable(8) %12, ptr noundef nonnull @.str.18, i64 noundef 2)
  br label %14

14:                                               ; preds = %11, %7, %2
  %15 = getelementptr inbounds nuw i8, ptr %3, i64 8
  %16 = tail call noundef nonnull align 8 dereferenceable(8) ptr @_ZNSo9_M_insertImEERSoT_(ptr noundef nonnull align 8 dereferenceable(8) %15, i64 noundef %4)
  %17 = load i32, ptr %3, align 8, !tbaa !50
  %.not.i.i = icmp eq i32 %17, 2
  br i1 %.not.i.i, label %_ZN7rocksdb10JSONWriterlsImEERS0_RKT_.exit, label %18

18:                                               ; preds = %14
  store i32 0, ptr %3, align 8, !tbaa !50
  br label %_ZN7rocksdb10JSONWriterlsImEERS0_RKT_.exit

_ZN7rocksdb10JSONWriterlsImEERS0_RKT_.exit:       ; preds = %14, %18
  %19 = getelementptr inbounds nuw i8, ptr %3, i64 4
  store i8 0, ptr %19, align 4, !tbaa !58
  %20 = tail call noundef nonnull align 8 dereferenceable(384) ptr @_ZN7rocksdb10JSONWriterlsEPKc(ptr noundef nonnull align 8 dereferenceable(384) %3, ptr noundef nonnull @.str.5)
  %21 = getelementptr inbounds nuw i8, ptr %1, i64 8
  %22 = load i64, ptr %21, align 8, !tbaa !18
  %23 = load i32, ptr %20, align 8, !tbaa !50
  %24 = icmp eq i32 %23, 2
  br i1 %24, label %25, label %32

25:                                               ; preds = %_ZN7rocksdb10JSONWriterlsImEERS0_RKT_.exit
  %26 = getelementptr inbounds nuw i8, ptr %20, i64 4
  %27 = load i8, ptr %26, align 4, !tbaa !58, !range !59, !noundef !60
  %28 = trunc nuw i8 %27 to i1
  br i1 %28, label %32, label %29

29:                                               ; preds = %25
  %30 = getelementptr inbounds nuw i8, ptr %20, i64 8
  %31 = tail call noundef nonnull align 8 dereferenceable(8) ptr @_ZSt16__ostream_insertIcSt11char_traitsIcEERSt13basic_ostreamIT_T0_ES6_PKS3_l(ptr noundef nonnull align 8 dereferenceable(8) %30, ptr noundef nonnull @.str.18, i64 noundef 2)
  br label %32

32:                                               ; preds = %29, %25, %_ZN7rocksdb10JSONWriterlsImEERS0_RKT_.exit
  %33 = getelementptr inbounds nuw i8, ptr %20, i64 8
  %34 = tail call noundef nonnull align 8 dereferenceable(8) ptr @_ZNSo9_M_insertImEERSoT_(ptr noundef nonnull align 8 dereferenceable(8) %33, i64 noundef %22)
  %35 = load i32, ptr %20, align 8, !tbaa !50
  %.not.i.i4 = icmp eq i32 %35, 2
  br i1 %.not.i.i4, label %_ZN7rocksdb10JSONWriterlsImEERS0_RKT_.exit5, label %36

36:                                               ; preds = %32
  store i32 0, ptr %20, align 8, !tbaa !50
  br label %_ZN7rocksdb10JSONWriterlsImEERS0_RKT_.exit5

_ZN7rocksdb10JSONWriterlsImEERS0_RKT_.exit5:      ; preds = %32, %36
  %37 = getelementptr inbounds nuw i8, ptr %20, i64 4
  store i8 0, ptr %37, align 4, !tbaa !58
  ret ptr %0
}